; Function Attrs: nounwind uwtable
define range(i32 0, 2) i32 @ossl_qrl_enc_level_set_key_update_done(ptr noundef %0, i32 noundef %1) local_unnamed_addr #2 {
  %3 = icmp ult i32 %1, 4
  br i1 %3, label %ossl_qrl_enc_level_set_get.exit, label %ossl_qrl_enc_level_set_get.exit.thread, !prof !3

ossl_qrl_enc_level_set_get.exit:                  ; preds = %2
  %4 = zext nneg i32 %1 to i64
  %5 = getelementptr inbounds nuw [4 x %struct.ossl_qrl_enc_level_st], ptr %0, i64 0, i64 %4
  %6 = icmp ne ptr %0, null
  %7 = icmp eq i32 %1, 3
  %or.cond = and i1 %6, %7
  br i1 %or.cond, label %8, label %ossl_qrl_enc_level_set_get.exit.thread, !prof !30

ossl_qrl_enc_level_set_get.exit.thread:           ; preds = %2, %ossl_qrl_enc_level_set_get.exit
  tail call void @ERR_new() #6
  tail call void @ERR_set_debug(ptr noundef nonnull @.str, i32 noundef 407, ptr noundef nonnull @__func__.ossl_qrl_enc_level_set_key_update_done) #6
  tail call void (i32, i32, ptr, ...) @ERR_set_error(i32 noundef 20, i32 noundef 524550, ptr noundef null) #6
  br label %28

8:                                                ; preds = %ossl_qrl_enc_level_set_get.exit
  %9 = getelementptr inbounds nuw i8, ptr %5, i64 80
  %10 = load i64, ptr %9, align 8, !tbaa !18
  %11 = and i64 %10, 1
  %12 = xor i64 %11, 1
  %13 = getelementptr inbounds nuw i8, ptr %0, i64 728
  %14 = load i8, ptr %13, align 8, !tbaa !4
  switch i8 %14, label %el_teardown_keyslot.exit [
    i8 1, label %ossl_qrl_enc_level_set_has_keyslot.exit.i
    i8 2, label %ossl_qrl_enc_level_set_has_keyslot.exit.i
    i8 3, label %15
  ]

15:                                               ; preds = %8
  %16 = getelementptr inbounds nuw i8, ptr %0, i64 704
  %17 = load i64, ptr %16, align 8, !tbaa !18
  %18 = and i64 %17, 1
  %19 = icmp eq i64 %12, %18
  br i1 %19, label %ossl_qrl_enc_level_set_has_keyslot.exit.i, label %el_teardown_keyslot.exit

ossl_qrl_enc_level_set_has_keyslot.exit.i:        ; preds = %8, %8, %15
  %20 = getelementptr inbounds nuw i8, ptr %0, i64 672
  %21 = getelementptr inbounds nuw [2 x ptr], ptr %20, i64 0, i64 %12
  %22 = load ptr, ptr %21, align 8, !tbaa !26
  %.not13.i = icmp eq ptr %22, null
  br i1 %.not13.i, label %24, label %23

23:                                               ; preds = %ossl_qrl_enc_level_set_has_keyslot.exit.i
  tail call void @EVP_CIPHER_CTX_free(ptr noundef nonnull %22) #6
  store ptr null, ptr %21, align 8, !tbaa !26
  br label %24

24:                                               ; preds = %23, %ossl_qrl_enc_level_set_has_keyslot.exit.i
  %25 = getelementptr inbounds nuw i8, ptr %0, i64 730
  %26 = getelementptr inbounds nuw [2 x [16 x i8]], ptr %25, i64 0, i64 %12
  tail call void @OPENSSL_cleanse(ptr noundef nonnull %26, i64 noundef 16) #6
  br label %el_teardown_keyslot.exit

el_teardown_keyslot.exit:                         ; preds = %8, %15, %24
  %27 = getelementptr inbounds nuw i8, ptr %5, i64 104
  store i8 3, ptr %27, align 8, !tbaa !4
  br label %28

28:                                               ; preds = %el_teardown_keyslot.exit, %ossl_qrl_enc_level_set_get.exit.thread
  %.0 = phi i32 [ 0, %ossl_qrl_enc_level_set_get.exit.thread ], [ 1, %el_teardown_keyslot.exit ]
  ret i32 %.0
}